target datalayout = "e-m:e-p270:32:32-p271:32:32-p272:64:64-i64:64-i128:128-f80:128-n8:16:32:64-S128"
target triple = "x86_64-pc-linux-gnu"

%struct.Curl_cftype = type { ptr, i32, i32, ptr, ptr, ptr, ptr, ptr, ptr, ptr, ptr, ptr, ptr, ptr, ptr, ptr }
%struct.Curl_cfilter = type { ptr, ptr, ptr, ptr, i32, i8 }
%struct.cf_call_data = type { ptr }
%struct.cf_h2_proxy_ctx = type { ptr, %struct.cf_call_data, %struct.bufq, %struct.bufq, %struct.tunnel_stream, i32, i32, i8 }
%struct.bufq = type { ptr, ptr, ptr, ptr, i64, i64, i64, i32 }
%struct.tunnel_stream = type { ptr, %struct.bufq, %struct.bufq, ptr, i32, i32, i32, i8 }

; Function Attrs: nounwind uwtable
define internal zeroext i1 @cf_h2_proxy_data_pending(ptr noundef %0, ptr noundef %1) #0 {
  %3 = alloca i1, align 1
  %4 = alloca ptr, align 8
  %5 = alloca ptr, align 8
  %6 = alloca ptr, align 8
  %7 = alloca i32, align 4
  store ptr %0, ptr %4, align 8, !tbaa !4
  store ptr %1, ptr %5, align 8, !tbaa !9
  call void @llvm.lifetime.start.p0(i64 8, ptr %6) #6
  %8 = load ptr, ptr %4, align 8, !tbaa !4
  %9 = getelementptr inbounds nuw %struct.Curl_cfilter, ptr %8, i32 0, i32 2
  %10 = load ptr, ptr %9, align 8, !tbaa !11
  store ptr %10, ptr %6, align 8, !tbaa !16
  %11 = load ptr, ptr %6, align 8, !tbaa !16
  %12 = icmp ne ptr %11, null
  br i1 %12, label %13, label %17

13:                                               ; preds = %2
  %14 = load ptr, ptr %6, align 8, !tbaa !16
  %15 = getelementptr inbounds nuw %struct.cf_h2_proxy_ctx, ptr %14, i32 0, i32 2
  %16 = call zeroext i1 @Curl_bufq_is_empty(ptr noundef %15)
  br i1 %16, label %17, label %31

17:                                               ; preds = %13, %2
  %18 = load ptr, ptr %6, align 8, !tbaa !16
  %19 = icmp ne ptr %18, null
  br i1 %19, label %20, label %32

20:                                               ; preds = %17
  %21 = load ptr, ptr %6, align 8, !tbaa !16
  %22 = getelementptr inbounds nuw %struct.cf_h2_proxy_ctx, ptr %21, i32 0, i32 4
  %23 = getelementptr inbounds nuw %struct.tunnel_stream, ptr %22, i32 0, i32 6
  %24 = load i32, ptr %23, align 8, !tbaa !114
  %25 = icmp eq i32 %24, 3
  br i1 %25, label %26, label %32

26:                                               ; preds = %20
  %27 = load ptr, ptr %6, align 8, !tbaa !16
  %28 = getelementptr inbounds nuw %struct.cf_h2_proxy_ctx, ptr %27, i32 0, i32 4
  %29 = getelementptr inbounds nuw %struct.tunnel_stream, ptr %28, i32 0, i32 1
  %30 = call zeroext i1 @Curl_bufq_is_empty(ptr noundef %29)
  br i1 %30, label %32, label %31

31:                                               ; preds = %26, %13
  store i1 true, ptr %3, align 1
  store i32 1, ptr %7, align 4
  br label %55

32:                                               ; preds = %26, %20, %17
  %33 = load ptr, ptr %4, align 8, !tbaa !4
  %34 = getelementptr inbounds nuw %struct.Curl_cfilter, ptr %33, i32 0, i32 1
  %35 = load ptr, ptr %34, align 8, !tbaa !25
  %36 = icmp ne ptr %35, null
  br i1 %36, label %37, label %51

37:                                               ; preds = %32
  %38 = load ptr, ptr %4, align 8, !tbaa !4
  %39 = getelementptr inbounds nuw %struct.Curl_cfilter, ptr %38, i32 0, i32 1
  %40 = load ptr, ptr %39, align 8, !tbaa !25
  %41 = getelementptr inbounds nuw %struct.Curl_cfilter, ptr %40, i32 0, i32 0
  %42 = load ptr, ptr %41, align 8, !tbaa !43
  %43 = getelementptr inbounds nuw %struct.Curl_cftype, ptr %42, i32 0, i32 9
  %44 = load ptr, ptr %43, align 8, !tbaa !115
  %45 = load ptr, ptr %4, align 8, !tbaa !4
  %46 = getelementptr inbounds nuw %struct.Curl_cfilter, ptr %45, i32 0, i32 1
  %47 = load ptr, ptr %46, align 8, !tbaa !25
  %48 = load ptr, ptr %5, align 8, !tbaa !9
  %49 = call zeroext i1 %44(ptr noundef %47, ptr noundef %48)
  %50 = zext i1 %49 to i32
  br label %52

51:                                               ; preds = %32
  br label %52

52:                                               ; preds = %51, %37
  %53 = phi i32 [ %50, %37 ], [ 0, %51 ]
  %54 = icmp ne i32 %53, 0
  store i1 %54, ptr %3, align 1
  store i32 1, ptr %7, align 4
  br label %55

55:                                               ; preds = %52, %31
  call void @llvm.lifetime.end.p0(i64 8, ptr %6) #6
  %56 = load i1, ptr %3, align 1
  ret i1 %56
}