; Function Attrs: nounwind uwtable
define internal zeroext i1 @cf_h2_proxy_data_pending(ptr noundef readonly captures(none) %0, ptr noundef %1) #0 {
  %3 = getelementptr inbounds nuw i8, ptr %0, i64 16
  %4 = load ptr, ptr %3, align 8, !tbaa !4
  %.not = icmp eq ptr %4, null
  br i1 %.not, label %.critedge, label %5

5:                                                ; preds = %2
  %6 = getelementptr inbounds nuw i8, ptr %4, i64 16
  %7 = tail call zeroext i1 @Curl_bufq_is_empty(ptr noundef nonnull %6) #7
  br i1 %7, label %8, label %22

8:                                                ; preds = %5
  %9 = getelementptr inbounds nuw i8, ptr %4, i64 296
  %10 = load i32, ptr %9, align 8, !tbaa !134
  %11 = icmp eq i32 %10, 3
  br i1 %11, label %12, label %.critedge

12:                                               ; preds = %8
  %13 = getelementptr inbounds nuw i8, ptr %4, i64 152
  %14 = tail call zeroext i1 @Curl_bufq_is_empty(ptr noundef nonnull %13) #7
  br i1 %14, label %.critedge, label %22

.critedge:                                        ; preds = %2, %12, %8
  %15 = getelementptr inbounds nuw i8, ptr %0, i64 8
  %16 = load ptr, ptr %15, align 8, !tbaa !31
  %.not13 = icmp eq ptr %16, null
  br i1 %.not13, label %22, label %17

17:                                               ; preds = %.critedge
  %18 = load ptr, ptr %16, align 8, !tbaa !111
  %19 = getelementptr inbounds nuw i8, ptr %18, i64 64
  %20 = load ptr, ptr %19, align 8, !tbaa !135
  %21 = tail call zeroext i1 %20(ptr noundef nonnull %16, ptr noundef %1) #7
  br label %22

22:                                               ; preds = %17, %.critedge, %5, %12
  %.0 = phi i1 [ true, %12 ], [ true, %5 ], [ %21, %17 ], [ false, %.critedge ]
  ret i1 %.0
}